; Function Attrs: nounwind uwtable
define ptr @l_Lean_KVMap_updateBool(ptr noundef %0, ptr noundef %1, ptr noundef %2) local_unnamed_addr #0 {
  %4 = tail call zeroext i8 @l_Lean_KVMap_getBool(ptr noundef %0, ptr noundef %1, i8 noundef zeroext 0)
  %5 = zext i8 %4 to i64
  %6 = shl nuw nsw i64 %5, 1
  %7 = or disjoint i64 %6, 1
  %8 = inttoptr i64 %7 to ptr
  %9 = tail call ptr @lean_apply_1(ptr noundef %2, ptr noundef nonnull %8) #6
  %10 = ptrtoint ptr %9 to i64
  %11 = and i64 %10, 1
  %.not = icmp eq i64 %11, 0
  br i1 %.not, label %12, label %lean_dec.exit

12:                                               ; preds = %3
  %13 = load i32, ptr %9, align 4, !tbaa !8
  %14 = icmp sgt i32 %13, 1
  br i1 %14, label %15, label %17, !prof !11

15:                                               ; preds = %12
  %16 = add nsw i32 %13, -1
  store i32 %16, ptr %9, align 4, !tbaa !8
  br label %lean_dec.exit

17:                                               ; preds = %12
  %.not.i = icmp eq i32 %13, 0
  br i1 %.not.i, label %lean_dec.exit, label %18

18:                                               ; preds = %17
  tail call void @lean_dec_ref_cold(ptr noundef nonnull %9) #6
  br label %lean_dec.exit

lean_dec.exit:                                    ; preds = %18, %17, %15, %3
  tail call void @lean_inc_heartbeat() #6
  %19 = tail call noalias ptr @mi_malloc_small(i64 noundef 16) #6
  %20 = icmp eq ptr %19, null
  br i1 %20, label %21, label %lean_alloc_ctor.exit

21:                                               ; preds = %lean_dec.exit
  tail call void @lean_internal_panic_out_of_memory() #7
  unreachable

lean_alloc_ctor.exit:                             ; preds = %lean_dec.exit
  %22 = lshr i64 %10, 1
  %23 = trunc i64 %22 to i8
  %24 = getelementptr inbounds nuw i8, ptr %19, i64 4
  %25 = getelementptr inbounds nuw i8, ptr %19, i64 8
  store i64 0, ptr %25, align 8, !tbaa !12
  store i32 1, ptr %19, align 4, !tbaa !8
  store i32 16777232, ptr %24, align 4
  store i8 %23, ptr %25, align 1, !tbaa !14
  %26 = tail call ptr @l_Lean_KVMap_insertCore(ptr noundef %0, ptr noundef %1, ptr noundef nonnull %19)
  ret ptr %26
}